target datalayout = "e-m:e-p270:32:32-p271:32:32-p272:64:64-i64:64-i128:128-f80:128-n8:16:32:64-S128"
target triple = "x86_64-pc-linux-gnu"

%"class.llvm::Metadata" = type { i8, i8, i16, i32 }
%"struct.llvm::MDNode::Header" = type <{ i64, i32, [4 x i8] }>

; Function Attrs: mustprogress nounwind uwtable
define linkonce_odr hidden noundef zeroext i1 @_ZN4llvm15ValueAsMetadata7classofEPKNS_8MetadataE(ptr noundef %0) #0 comdat align 2 {
  %2 = alloca ptr, align 8
  store ptr %0, ptr %2, align 8
  %3 = load ptr, ptr %2, align 8
  %4 = call noundef i32 @_ZNK4llvm8Metadata13getMetadataIDEv(ptr noundef nonnull align 4 dereferenceable(8) %3)
  %5 = icmp eq i32 %4, 2
  br i1 %5, label %10, label %6

6:                                                ; preds = %1
  %7 = load ptr, ptr %2, align 8
  %8 = call noundef i32 @_ZNK4llvm8Metadata13getMetadataIDEv(ptr noundef nonnull align 4 dereferenceable(8) %7)
  %9 = icmp eq i32 %8, 1
  br label %10

10:                                               ; preds = %6, %1
  %11 = phi i1 [ true, %1 ], [ %9, %6 ]
  ret i1 %11
}

; Function Attrs: mustprogress nounwind uwtable
define linkonce_odr hidden noundef zeroext i1 @_ZN4llvm6MDNode7classofEPKNS_8MetadataE(ptr noundef %0) #0 comdat align 2 {
  %2 = alloca i1, align 1
  %3 = alloca ptr, align 8
  store ptr %0, ptr %3, align 8
  %4 = load ptr, ptr %3, align 8
  %5 = call noundef i32 @_ZNK4llvm8Metadata13getMetadataIDEv(ptr noundef nonnull align 4 dereferenceable(8) %4)
  switch i32 %5, label %6 [
    i32 5, label %7
    i32 6, label %8
    i32 7, label %9
    i32 8, label %10
    i32 9, label %11
    i32 10, label %12
    i32 11, label %13
    i32 12, label %14
    i32 13, label %15
    i32 14, label %16
    i32 15, label %17
    i32 16, label %18
    i32 17, label %19
    i32 18, label %20
    i32 19, label %21
    i32 20, label %22
    i32 21, label %23
    i32 22, label %24
    i32 23, label %25
    i32 24, label %26
    i32 25, label %27
    i32 26, label %28
    i32 27, label %29
    i32 28, label %30
    i32 29, label %31
    i32 30, label %32
    i32 31, label %33
    i32 32, label %34
    i32 33, label %35
    i32 34, label %36
    i32 35, label %37
  ]

6:                                                ; preds = %1
  store i1 false, ptr %2, align 1
  br label %38

7:                                                ; preds = %1
  store i1 true, ptr %2, align 1
  br label %38

8:                                                ; preds = %1
  store i1 true, ptr %2, align 1
  br label %38

9:                                                ; preds = %1
  store i1 true, ptr %2, align 1
  br label %38

10:                                               ; preds = %1
  store i1 true, ptr %2, align 1
  br label %38

11:                                               ; preds = %1
  store i1 true, ptr %2, align 1
  br label %38

12:                                               ; preds = %1
  store i1 true, ptr %2, align 1
  br label %38

13:                                               ; preds = %1
  store i1 true, ptr %2, align 1
  br label %38

14:                                               ; preds = %1
  store i1 true, ptr %2, align 1
  br label %38

15:                                               ; preds = %1
  store i1 true, ptr %2, align 1
  br label %38

16:                                               ; preds = %1
  store i1 true, ptr %2, align 1
  br label %38

17:                                               ; preds = %1
  store i1 true, ptr %2, align 1
  br label %38

18:                                               ; preds = %1
  store i1 true, ptr %2, align 1
  br label %38

19:                                               ; preds = %1
  store i1 true, ptr %2, align 1
  br label %38

20:                                               ; preds = %1
  store i1 true, ptr %2, align 1
  br label %38

21:                                               ; preds = %1
  store i1 true, ptr %2, align 1
  br label %38

22:                                               ; preds = %1
  store i1 true, ptr %2, align 1
  br label %38

23:                                               ; preds = %1
  store i1 true, ptr %2, align 1
  br label %38

24:                                               ; preds = %1
  store i1 true, ptr %2, align 1
  br label %38

25:                                               ; preds = %1
  store i1 true, ptr %2, align 1
  br label %38

26:                                               ; preds = %1
  store i1 true, ptr %2, align 1
  br label %38

27:                                               ; preds = %1
  store i1 true, ptr %2, align 1
  br label %38

28:                                               ; preds = %1
  store i1 true, ptr %2, align 1
  br label %38

29:                                               ; preds = %1
  store i1 true, ptr %2, align 1
  br label %38

30:                                               ; preds = %1
  store i1 true, ptr %2, align 1
  br label %38

31:                                               ; preds = %1
  store i1 true, ptr %2, align 1
  br label %38

32:                                               ; preds = %1
  store i1 true, ptr %2, align 1
  br label %38

33:                                               ; preds = %1
  store i1 true, ptr %2, align 1
  br label %38

34:                                               ; preds = %1
  store i1 true, ptr %2, align 1
  br label %38

35:                                               ; preds = %1
  store i1 true, ptr %2, align 1
  br label %38

36:                                               ; preds = %1
  store i1 true, ptr %2, align 1
  br label %38

37:                                               ; preds = %1
  store i1 true, ptr %2, align 1
  br label %38

38:                                               ; preds = %37, %36, %35, %34, %33, %32, %31, %30, %29, %28, %27, %26, %25, %24, %23, %22, %21, %20, %19, %18, %17, %16, %15, %14, %13, %12, %11, %10, %9, %8, %7, %6
  %39 = load i1, ptr %2, align 1
  ret i1 %39
}

; Function Attrs: mustprogress nounwind uwtable
define linkonce_odr hidden noundef zeroext i1 @_ZN4llvm8isa_implINS_9DIArgListENS_8MetadataEvE4doitERKS2_(ptr noundef nonnull align 4 dereferenceable(8) %0) #0 comdat align 2 {
  %2 = alloca ptr, align 8
  store ptr %0, ptr %2, align 8
  %3 = load ptr, ptr %2, align 8
  %4 = call noundef i32 @_ZNK4llvm8Metadata13getMetadataIDEv(ptr noundef nonnull align 4 dereferenceable(8) %3)
  %5 = icmp eq i32 %4, 4
  ret i1 %5
}

; Function Attrs: mustprogress nounwind uwtable
define linkonce_odr hidden noundef zeroext i1 @_ZN4llvm8isa_implINS_15ValueAsMetadataENS_8MetadataEvE4doitERKS2_(ptr noundef nonnull align 4 dereferenceable(8) %0) #0 comdat align 2 {
  %2 = alloca ptr, align 8
  store ptr %0, ptr %2, align 8
  %3 = load ptr, ptr %2, align 8
  %4 = call noundef zeroext i1 @_ZN4llvm15ValueAsMetadata7classofEPKNS_8MetadataE(ptr noundef %3)
  ret i1 %4
}

; Function Attrs: mustprogress nounwind uwtable
define linkonce_odr hidden noundef zeroext i1 @_ZN4llvm8isa_implINS_6MDNodeENS_8MetadataEvE4doitERKS2_(ptr noundef nonnull align 4 dereferenceable(8) %0) #0 comdat align 2 {
  %2 = alloca ptr, align 8
  store ptr %0, ptr %2, align 8
  %3 = load ptr, ptr %2, align 8
  %4 = call noundef zeroext i1 @_ZN4llvm6MDNode7classofEPKNS_8MetadataE(ptr noundef %3)
  ret i1 %4
}

; Function Attrs: mustprogress nounwind uwtable
define linkonce_odr hidden noundef zeroext i1 @_ZN4llvm11isa_impl_clINS_9DIArgListEPKNS_8MetadataEE4doitES4_(ptr noundef %0) #0 comdat align 2 {
  %2 = alloca ptr, align 8
  store ptr %0, ptr %2, align 8
  %3 = load ptr, ptr %2, align 8
  %4 = call noundef zeroext i1 @_ZN4llvm8isa_implINS_9DIArgListENS_8MetadataEvE4doitERKS2_(ptr noundef nonnull align 4 dereferenceable(8) %3)
  ret i1 %4
}

; Function Attrs: mustprogress nounwind uwtable
define linkonce_odr hidden noundef zeroext i1 @_ZN4llvm11isa_impl_clINS_15ValueAsMetadataEPKNS_8MetadataEE4doitES4_(ptr noundef %0) #0 comdat align 2 {
  %2 = alloca ptr, align 8
  store ptr %0, ptr %2, align 8
  %3 = load ptr, ptr %2, align 8
  %4 = call noundef zeroext i1 @_ZN4llvm8isa_implINS_15ValueAsMetadataENS_8MetadataEvE4doitERKS2_(ptr noundef nonnull align 4 dereferenceable(8) %3)
  ret i1 %4
}

; Function Attrs: mustprogress nounwind uwtable
define linkonce_odr hidden noundef zeroext i1 @_ZN4llvm11isa_impl_clINS_6MDNodeEPKNS_8MetadataEE4doitES4_(ptr noundef %0) #0 comdat align 2 {
  %2 = alloca ptr, align 8
  store ptr %0, ptr %2, align 8
  %3 = load ptr, ptr %2, align 8
  %4 = call noundef zeroext i1 @_ZN4llvm8isa_implINS_6MDNodeENS_8MetadataEvE4doitERKS2_(ptr noundef nonnull align 4 dereferenceable(8) %3)
  ret i1 %4
}

; Function Attrs: mustprogress nounwind uwtable
define linkonce_odr hidden noundef zeroext i1 @_ZN4llvm13isa_impl_wrapINS_9DIArgListEPKNS_8MetadataES4_E4doitERKS4_(ptr noundef nonnull align 8 dereferenceable(8) %0) #0 comdat align 2 {
  %2 = alloca ptr, align 8
  store ptr %0, ptr %2, align 8
  %3 = load ptr, ptr %2, align 8
  %4 = load ptr, ptr %3, align 8
  %5 = call noundef zeroext i1 @_ZN4llvm11isa_impl_clINS_9DIArgListEPKNS_8MetadataEE4doitES4_(ptr noundef %4)
  ret i1 %5
}

; Function Attrs: mustprogress nounwind uwtable
define linkonce_odr hidden noundef zeroext i1 @_ZN4llvm13isa_impl_wrapINS_15ValueAsMetadataEPKNS_8MetadataES4_E4doitERKS4_(ptr noundef nonnull align 8 dereferenceable(8) %0) #0 comdat align 2 {
  %2 = alloca ptr, align 8
  store ptr %0, ptr %2, align 8
  %3 = load ptr, ptr %2, align 8
  %4 = load ptr, ptr %3, align 8
  %5 = call noundef zeroext i1 @_ZN4llvm11isa_impl_clINS_15ValueAsMetadataEPKNS_8MetadataEE4doitES4_(ptr noundef %4)
  ret i1 %5
}

; Function Attrs: mustprogress nounwind uwtable
define linkonce_odr hidden noundef zeroext i1 @_ZN4llvm13isa_impl_wrapINS_6MDNodeEPKNS_8MetadataES4_E4doitERKS4_(ptr noundef nonnull align 8 dereferenceable(8) %0) #0 comdat align 2 {
  %2 = alloca ptr, align 8
  store ptr %0, ptr %2, align 8
  %3 = load ptr, ptr %2, align 8
  %4 = load ptr, ptr %3, align 8
  %5 = call noundef zeroext i1 @_ZN4llvm11isa_impl_clINS_6MDNodeEPKNS_8MetadataEE4doitES4_(ptr noundef %4)
  ret i1 %5
}

; Function Attrs: mustprogress nounwind uwtable
define linkonce_odr hidden noundef zeroext i1 @_ZN4llvm13isa_impl_wrapINS_9DIArgListEKPKNS_8MetadataES4_E4doitERS5_(ptr noundef nonnull align 8 dereferenceable(8) %0) #0 comdat align 2 {
  %2 = alloca ptr, align 8
  %3 = alloca ptr, align 8
  store ptr %0, ptr %2, align 8
  %4 = load ptr, ptr %2, align 8
  %5 = call noundef ptr @_ZN4llvm13simplify_typeIKPKNS_8MetadataEE18getSimplifiedValueERS4_(ptr noundef nonnull align 8 dereferenceable(8) %4)
  store ptr %5, ptr %3, align 8
  %6 = call noundef zeroext i1 @_ZN4llvm13isa_impl_wrapINS_9DIArgListEPKNS_8MetadataES4_E4doitERKS4_(ptr noundef nonnull align 8 dereferenceable(8) %3)
  ret i1 %6
}

; Function Attrs: mustprogress nounwind uwtable
define linkonce_odr hidden noundef zeroext i1 @_ZN4llvm13isa_impl_wrapINS_15ValueAsMetadataEKPKNS_8MetadataES4_E4doitERS5_(ptr noundef nonnull align 8 dereferenceable(8) %0) #0 comdat align 2 {
  %2 = alloca ptr, align 8
  %3 = alloca ptr, align 8
  store ptr %0, ptr %2, align 8
  %4 = load ptr, ptr %2, align 8
  %5 = call noundef ptr @_ZN4llvm13simplify_typeIKPKNS_8MetadataEE18getSimplifiedValueERS4_(ptr noundef nonnull align 8 dereferenceable(8) %4)
  store ptr %5, ptr %3, align 8
  %6 = call noundef zeroext i1 @_ZN4llvm13isa_impl_wrapINS_15ValueAsMetadataEPKNS_8MetadataES4_E4doitERKS4_(ptr noundef nonnull align 8 dereferenceable(8) %3)
  ret i1 %6
}

; Function Attrs: mustprogress nounwind uwtable
define linkonce_odr hidden noundef nonnull align 8 dereferenceable(8) ptr @_ZN4llvm13simplify_typeIPKNS_8MetadataEE18getSimplifiedValueERS3_(ptr noundef nonnull align 8 dereferenceable(8) %0) #0 comdat align 2 {
  %2 = alloca ptr, align 8
  store ptr %0, ptr %2, align 8
  %3 = load ptr, ptr %2, align 8
  ret ptr %3
}

; Function Attrs: mustprogress nounwind uwtable
define linkonce_odr hidden noundef ptr @_ZN4llvm16cast_convert_valINS_6MDNodeEPKNS_8MetadataES4_E4doitES4_(ptr noundef %0) #0 comdat align 2 {
  %2 = alloca ptr, align 8
  store ptr %0, ptr %2, align 8
  %3 = load ptr, ptr %2, align 8
  ret ptr %3
}

; Function Attrs: mustprogress nounwind uwtable
define linkonce_odr hidden noundef zeroext i1 @_ZN4llvm13isa_impl_wrapINS_6MDNodeEKPKNS_8MetadataES4_E4doitERS5_(ptr noundef nonnull align 8 dereferenceable(8) %0) #0 comdat align 2 {
  %2 = alloca ptr, align 8
  %3 = alloca ptr, align 8
  store ptr %0, ptr %2, align 8
  %4 = load ptr, ptr %2, align 8
  %5 = call noundef ptr @_ZN4llvm13simplify_typeIKPKNS_8MetadataEE18getSimplifiedValueERS4_(ptr noundef nonnull align 8 dereferenceable(8) %4)
  store ptr %5, ptr %3, align 8
  %6 = call noundef zeroext i1 @_ZN4llvm13isa_impl_wrapINS_6MDNodeEPKNS_8MetadataES4_E4doitERKS4_(ptr noundef nonnull align 8 dereferenceable(8) %3)
  ret i1 %6
}

; Function Attrs: mustprogress nounwind uwtable
define linkonce_odr hidden noundef zeroext i1 @_ZN4llvm14CastIsPossibleINS_9DIArgListEPKNS_8MetadataEvE10isPossibleERKS4_(ptr noundef nonnull align 8 dereferenceable(8) %0) #0 comdat align 2 {
  %2 = alloca ptr, align 8
  store ptr %0, ptr %2, align 8
  %3 = load ptr, ptr %2, align 8
  %4 = call noundef zeroext i1 @_ZN4llvm13isa_impl_wrapINS_9DIArgListEKPKNS_8MetadataES4_E4doitERS5_(ptr noundef nonnull align 8 dereferenceable(8) %3)
  ret i1 %4
}

; Function Attrs: mustprogress nounwind uwtable
define linkonce_odr hidden noundef zeroext i1 @_ZN4llvm14CastIsPossibleINS_15ValueAsMetadataEPKNS_8MetadataEvE10isPossibleERKS4_(ptr noundef nonnull align 8 dereferenceable(8) %0) #0 comdat align 2 {
  %2 = alloca ptr, align 8
  store ptr %0, ptr %2, align 8
  %3 = load ptr, ptr %2, align 8
  %4 = call noundef zeroext i1 @_ZN4llvm13isa_impl_wrapINS_15ValueAsMetadataEKPKNS_8MetadataES4_E4doitERS5_(ptr noundef nonnull align 8 dereferenceable(8) %3)
  ret i1 %4
}

; Function Attrs: mustprogress nounwind uwtable
define linkonce_odr hidden noundef ptr @_ZN4llvm13simplify_typeIKPKNS_8MetadataEE18getSimplifiedValueERS4_(ptr noundef nonnull align 8 dereferenceable(8) %0) #0 comdat align 2 {
  %2 = alloca ptr, align 8
  store ptr %0, ptr %2, align 8
  %3 = load ptr, ptr %2, align 8
  %4 = call noundef nonnull align 8 dereferenceable(8) ptr @_ZN4llvm13simplify_typeIPKNS_8MetadataEE18getSimplifiedValueERS3_(ptr noundef nonnull align 8 dereferenceable(8) %3)
  %5 = load ptr, ptr %4, align 8
  ret ptr %5
}

; Function Attrs: mustprogress nounwind uwtable
define linkonce_odr hidden noundef nonnull align 8 dereferenceable(12) ptr @_ZNK4llvm6MDNode9getHeaderEv(ptr noundef nonnull align 8 dereferenceable(16) %0) #0 comdat align 2 {
  %2 = alloca ptr, align 8
  store ptr %0, ptr %2, align 8
  %3 = load ptr, ptr %2, align 8
  %4 = getelementptr inbounds %"struct.llvm::MDNode::Header", ptr %3, i64 -1
  ret ptr %4
}

; Function Attrs: mustprogress nounwind uwtable
define linkonce_odr hidden noundef ptr @_ZN4llvm8CastInfoINS_6MDNodeEPKNS_8MetadataEvE6doCastERKS4_(ptr noundef nonnull align 8 dereferenceable(8) %0) #0 comdat align 2 {
  %2 = alloca ptr, align 8
  store ptr %0, ptr %2, align 8
  %3 = load ptr, ptr %2, align 8
  %4 = load ptr, ptr %3, align 8
  %5 = call noundef ptr @_ZN4llvm16cast_convert_valINS_6MDNodeEPKNS_8MetadataES4_E4doitES4_(ptr noundef %4)
  ret ptr %5
}

; Function Attrs: mustprogress nounwind uwtable
define linkonce_odr hidden noundef ptr @_ZN4llvm8CastInfoINS_6MDNodeEPKNS_8MetadataEvE10castFailedEv() #0 comdat align 2 {
  ret ptr null
}

; Function Attrs: mustprogress nounwind uwtable
define linkonce_odr hidden noundef zeroext i1 @_ZN4llvm14CastIsPossibleINS_6MDNodeEPKNS_8MetadataEvE10isPossibleERKS4_(ptr noundef nonnull align 8 dereferenceable(8) %0) #0 comdat align 2 {
  %2 = alloca ptr, align 8
  store ptr %0, ptr %2, align 8
  %3 = load ptr, ptr %2, align 8
  %4 = call noundef zeroext i1 @_ZN4llvm13isa_impl_wrapINS_6MDNodeEKPKNS_8MetadataES4_E4doitERS5_(ptr noundef nonnull align 8 dereferenceable(8) %3)
  ret i1 %4
}

; Function Attrs: mustprogress nounwind uwtable
define linkonce_odr hidden noundef zeroext i1 @_ZN4llvm8CastInfoINS_9DIArgListEKPKNS_8MetadataEvE10isPossibleERS5_(ptr noundef nonnull align 8 dereferenceable(8) %0) #0 comdat align 2 {
  %2 = alloca ptr, align 8
  %3 = alloca ptr, align 8
  store ptr %0, ptr %2, align 8
  %4 = load ptr, ptr %2, align 8
  %5 = call noundef ptr @_ZN4llvm13simplify_typeIKPKNS_8MetadataEE18getSimplifiedValueERS4_(ptr noundef nonnull align 8 dereferenceable(8) %4)
  store ptr %5, ptr %3, align 8
  %6 = call noundef zeroext i1 @_ZN4llvm14CastIsPossibleINS_9DIArgListEPKNS_8MetadataEvE10isPossibleERKS4_(ptr noundef nonnull align 8 dereferenceable(8) %3)
  ret i1 %6
}

; Function Attrs: mustprogress nounwind uwtable
define linkonce_odr hidden noundef zeroext i1 @_ZN4llvm8CastInfoINS_15ValueAsMetadataEKPKNS_8MetadataEvE10isPossibleERS5_(ptr noundef nonnull align 8 dereferenceable(8) %0) #0 comdat align 2 {
  %2 = alloca ptr, align 8
  %3 = alloca ptr, align 8
  store ptr %0, ptr %2, align 8
  %4 = load ptr, ptr %2, align 8
  %5 = call noundef ptr @_ZN4llvm13simplify_typeIKPKNS_8MetadataEE18getSimplifiedValueERS4_(ptr noundef nonnull align 8 dereferenceable(8) %4)
  store ptr %5, ptr %3, align 8
  %6 = call noundef zeroext i1 @_ZN4llvm14CastIsPossibleINS_15ValueAsMetadataEPKNS_8MetadataEvE10isPossibleERKS4_(ptr noundef nonnull align 8 dereferenceable(8) %3)
  ret i1 %6
}

; Function Attrs: mustprogress nounwind uwtable
define linkonce_odr hidden noundef i32 @_ZNK4llvm8Metadata13getMetadataIDEv(ptr noundef nonnull align 4 dereferenceable(8) %0) #0 comdat align 2 {
  %2 = alloca ptr, align 8
  store ptr %0, ptr %2, align 8
  %3 = load ptr, ptr %2, align 8
  %4 = getelementptr inbounds nuw %"class.llvm::Metadata", ptr %3, i32 0, i32 0
  %5 = load i8, ptr %4, align 4
  %6 = zext i8 %5 to i32
  ret i32 %6
}

; Function Attrs: mustprogress nounwind uwtable
define linkonce_odr hidden noundef i32 @_ZNK4llvm6MDNode16getNumUnresolvedEv(ptr noundef nonnull align 8 dereferenceable(16) %0) #0 comdat align 2 {
  %2 = alloca ptr, align 8
  store ptr %0, ptr %2, align 8
  %3 = load ptr, ptr %2, align 8
  %4 = call noundef nonnull align 8 dereferenceable(12) ptr @_ZNK4llvm6MDNode9getHeaderEv(ptr noundef nonnull align 8 dereferenceable(16) %3)
  %5 = getelementptr inbounds nuw %"struct.llvm::MDNode::Header", ptr %4, i32 0, i32 1
  %6 = load i32, ptr %5, align 8
  ret i32 %6
}

; Function Attrs: mustprogress nounwind uwtable
define linkonce_odr hidden noundef zeroext i1 @_ZNK4llvm6MDNode11isTemporaryEv(ptr noundef nonnull align 8 dereferenceable(16) %0) #0 comdat align 2 {
  %2 = alloca ptr, align 8
  store ptr %0, ptr %2, align 8
  %3 = load ptr, ptr %2, align 8
  %4 = getelementptr inbounds nuw %"class.llvm::Metadata", ptr %3, i32 0, i32 1
  %5 = load i8, ptr %4, align 1
  %6 = and i8 %5, 127
  %7 = zext i8 %6 to i32
  %8 = icmp eq i32 %7, 2
  ret i1 %8
}

; Function Attrs: mustprogress nounwind uwtable
define linkonce_odr hidden noundef ptr @_ZN4llvm8CastInfoINS_6MDNodeEPKNS_8MetadataEvE16doCastIfPossibleERKS4_(ptr noundef nonnull align 8 dereferenceable(8) %0) #0 comdat align 2 {
  %2 = alloca ptr, align 8
  %3 = alloca ptr, align 8
  store ptr %0, ptr %3, align 8
  %4 = load ptr, ptr %3, align 8
  %5 = call noundef zeroext i1 @_ZN4llvm14CastIsPossibleINS_6MDNodeEPKNS_8MetadataEvE10isPossibleERKS4_(ptr noundef nonnull align 8 dereferenceable(8) %4)
  br i1 %5, label %8, label %6

6:                                                ; preds = %1
  %7 = call noundef ptr @_ZN4llvm8CastInfoINS_6MDNodeEPKNS_8MetadataEvE10castFailedEv()
  store ptr %7, ptr %2, align 8
  br label %11

8:                                                ; preds = %1
  %9 = load ptr, ptr %3, align 8
  %10 = call noundef ptr @_ZN4llvm8CastInfoINS_6MDNodeEPKNS_8MetadataEvE6doCastERKS4_(ptr noundef nonnull align 8 dereferenceable(8) %9)
  store ptr %10, ptr %2, align 8
  br label %11

11:                                               ; preds = %8, %6
  %12 = load ptr, ptr %2, align 8
  ret ptr %12
}

; Function Attrs: mustprogress nounwind uwtable
define linkonce_odr hidden noundef zeroext i1 @_ZN4llvm3isaINS_9DIArgListEPKNS_8MetadataEEEbRKT0_(ptr noundef nonnull align 8 dereferenceable(8) %0) #0 comdat {
  %2 = alloca ptr, align 8
  store ptr %0, ptr %2, align 8
  %3 = load ptr, ptr %2, align 8
  %4 = call noundef zeroext i1 @_ZN4llvm8CastInfoINS_9DIArgListEKPKNS_8MetadataEvE10isPossibleERS5_(ptr noundef nonnull align 8 dereferenceable(8) %3)
  ret i1 %4
}

; Function Attrs: mustprogress nounwind uwtable
define linkonce_odr hidden noundef zeroext i1 @_ZN4llvm3isaINS_15ValueAsMetadataEPKNS_8MetadataEEEbRKT0_(ptr noundef nonnull align 8 dereferenceable(8) %0) #0 comdat {
  %2 = alloca ptr, align 8
  store ptr %0, ptr %2, align 8
  %3 = load ptr, ptr %2, align 8
  %4 = call noundef zeroext i1 @_ZN4llvm8CastInfoINS_15ValueAsMetadataEKPKNS_8MetadataEvE10isPossibleERS5_(ptr noundef nonnull align 8 dereferenceable(8) %3)
  ret i1 %4
}

; Function Attrs: mustprogress nounwind uwtable
define linkonce_odr hidden noundef zeroext i1 @_ZNK4llvm6MDNode19isAlwaysReplaceableEv(ptr noundef nonnull align 8 dereferenceable(16) %0) #0 comdat align 2 {
  %2 = alloca ptr, align 8
  store ptr %0, ptr %2, align 8
  %3 = load ptr, ptr %2, align 8
  %4 = call noundef i32 @_ZNK4llvm8Metadata13getMetadataIDEv(ptr noundef nonnull align 4 dereferenceable(8) %3)
  %5 = icmp eq i32 %4, 30
  ret i1 %5
}

; Function Attrs: mustprogress nounwind uwtable
define linkonce_odr hidden noundef zeroext i1 @_ZNK4llvm6MDNode10isResolvedEv(ptr noundef nonnull align 8 dereferenceable(16) %0) #0 comdat align 2 {
  %2 = alloca ptr, align 8
  store ptr %0, ptr %2, align 8
  %3 = load ptr, ptr %2, align 8
  %4 = call noundef zeroext i1 @_ZNK4llvm6MDNode11isTemporaryEv(ptr noundef nonnull align 8 dereferenceable(16) %3)
  br i1 %4, label %9, label %5

5:                                                ; preds = %1
  %6 = call noundef i32 @_ZNK4llvm6MDNode16getNumUnresolvedEv(ptr noundef nonnull align 8 dereferenceable(16) %3)
  %7 = icmp ne i32 %6, 0
  %8 = xor i1 %7, true
  br label %9

9:                                                ; preds = %5, %1
  %10 = phi i1 [ false, %1 ], [ %8, %5 ]
  ret i1 %10
}

; Function Attrs: mustprogress nounwind uwtable
define linkonce_odr hidden noundef ptr @_ZN4llvm8dyn_castINS_6MDNodeEKNS_8MetadataEEEDcPT0_(ptr noundef %0) #0 comdat {
  %2 = alloca ptr, align 8
  store ptr %0, ptr %2, align 8
  %3 = call noundef ptr @_ZN4llvm8CastInfoINS_6MDNodeEPKNS_8MetadataEvE16doCastIfPossibleERKS4_(ptr noundef nonnull align 8 dereferenceable(8) %2)
  ret ptr %3
}

; Function Attrs: mustprogress nounwind uwtable
define dso_local noundef zeroext i1 @_ZN4llvm23ReplaceableMetadataImpl13isReplaceableERKNS_8MetadataE(ptr noundef nonnull align 4 dereferenceable(8) %0) #0 align 2 {
  %2 = alloca i1, align 1
  %3 = alloca ptr, align 8
  %4 = alloca ptr, align 8
  %5 = alloca ptr, align 8
  %6 = alloca ptr, align 8
  store ptr %0, ptr %3, align 8
  %7 = load ptr, ptr %3, align 8
  %8 = call noundef ptr @_ZN4llvm8dyn_castINS_6MDNodeEKNS_8MetadataEEEDcPT0_(ptr noundef %7)
  store ptr %8, ptr %4, align 8
  %9 = load ptr, ptr %4, align 8
  %10 = icmp ne ptr %9, null
  br i1 %10, label %11, label %19

11:                                               ; preds = %1
  %12 = load ptr, ptr %4, align 8
  %13 = call noundef zeroext i1 @_ZNK4llvm6MDNode10isResolvedEv(ptr noundef nonnull align 8 dereferenceable(16) %12)
  br i1 %13, label %14, label %17

14:                                               ; preds = %11
  %15 = load ptr, ptr %4, align 8
  %16 = call noundef zeroext i1 @_ZNK4llvm6MDNode19isAlwaysReplaceableEv(ptr noundef nonnull align 8 dereferenceable(16) %15)
  br label %17

17:                                               ; preds = %14, %11
  %18 = phi i1 [ true, %11 ], [ %16, %14 ]
  store i1 %18, ptr %2, align 1
  br label %27

19:                                               ; preds = %1
  %20 = load ptr, ptr %3, align 8
  store ptr %20, ptr %5, align 8
  %21 = call noundef zeroext i1 @_ZN4llvm3isaINS_15ValueAsMetadataEPKNS_8MetadataEEEbRKT0_(ptr noundef nonnull align 8 dereferenceable(8) %5)
  br i1 %21, label %25, label %22

22:                                               ; preds = %19
  %23 = load ptr, ptr %3, align 8
  store ptr %23, ptr %6, align 8
  %24 = call noundef zeroext i1 @_ZN4llvm3isaINS_9DIArgListEPKNS_8MetadataEEEbRKT0_(ptr noundef nonnull align 8 dereferenceable(8) %6)
  br label %25

25:                                               ; preds = %22, %19
  %26 = phi i1 [ true, %19 ], [ %24, %22 ]
  store i1 %26, ptr %2, align 1
  br label %27

27:                                               ; preds = %25, %17
  %28 = load i1, ptr %2, align 1
  ret i1 %28
}

; Function Attrs: mustprogress nounwind uwtable
define dso_local noundef zeroext i1 @_ZN4llvm16MetadataTracking13isReplaceableERKNS_8MetadataE(ptr noundef nonnull align 4 dereferenceable(8) %0) #0 align 2 {
  %2 = alloca ptr, align 8
  store ptr %0, ptr %2, align 8
  %3 = load ptr, ptr %2, align 8
  %4 = call noundef zeroext i1 @_ZN4llvm23ReplaceableMetadataImpl13isReplaceableERKNS_8MetadataE(ptr noundef nonnull align 4 dereferenceable(8) %3)
  ret i1 %4
}